; Function Attrs: mustprogress nounwind uwtable
define internal fastcc void @_ZNSt8_Rb_treeI21grpc_resolved_addressSt4pairIKS0_N9grpc_core13RefCountedPtrINS3_12_GLOBAL__N_118OutlierDetectionLb15SubchannelStateEEEESt10_Select1stIS9_ENS3_23ResolvedAddressLessThanESaIS9_EE10_Auto_nodeD2Ev(ptr %.8.val) unnamed_addr #5 align 2 personality ptr @__gxx_personality_v0 {
  %.not = icmp eq ptr %.8.val, null
  br i1 %.not, label %8, label %1

1:                                                ; preds = %0
  %2 = getelementptr i8, ptr %.8.val, i64 168
  %.val.i = load ptr, ptr %2, align 8, !tbaa !228
  %.not.i.i.i.i.i.i = icmp eq ptr %.val.i, null
  br i1 %.not.i.i.i.i.i.i, label %_ZNSt8_Rb_treeI21grpc_resolved_addressSt4pairIKS0_N9grpc_core13RefCountedPtrINS3_12_GLOBAL__N_118OutlierDetectionLb15SubchannelStateEEEESt10_Select1stIS9_ENS3_23ResolvedAddressLessThanESaIS9_EE12_M_drop_nodeEPSt13_Rb_tree_nodeIS9_E.exit, label %3

3:                                                ; preds = %1
  %4 = getelementptr inbounds nuw i8, ptr %.val.i, i64 8
  %5 = atomicrmw sub ptr %4, i64 1 acq_rel, align 8
  %6 = icmp eq i64 %5, 1
  br i1 %6, label %7, label %_ZNSt8_Rb_treeI21grpc_resolved_addressSt4pairIKS0_N9grpc_core13RefCountedPtrINS3_12_GLOBAL__N_118OutlierDetectionLb15SubchannelStateEEEESt10_Select1stIS9_ENS3_23ResolvedAddressLessThanESaIS9_EE12_M_drop_nodeEPSt13_Rb_tree_nodeIS9_E.exit, !prof !99

7:                                                ; preds = %3
  tail call fastcc void @_ZNK9grpc_core11UnrefDeleteclIKNS_12_GLOBAL__N_118OutlierDetectionLb15SubchannelStateEEEvPT_(ptr noundef nonnull align 8 dereferenceable(16) %.val.i)
  br label %_ZNSt8_Rb_treeI21grpc_resolved_addressSt4pairIKS0_N9grpc_core13RefCountedPtrINS3_12_GLOBAL__N_118OutlierDetectionLb15SubchannelStateEEEESt10_Select1stIS9_ENS3_23ResolvedAddressLessThanESaIS9_EE12_M_drop_nodeEPSt13_Rb_tree_nodeIS9_E.exit

_ZNSt8_Rb_treeI21grpc_resolved_addressSt4pairIKS0_N9grpc_core13RefCountedPtrINS3_12_GLOBAL__N_118OutlierDetectionLb15SubchannelStateEEEESt10_Select1stIS9_ENS3_23ResolvedAddressLessThanESaIS9_EE12_M_drop_nodeEPSt13_Rb_tree_nodeIS9_E.exit: ; preds = %1, %3, %7
  tail call void @_ZdlPvm(ptr noundef nonnull %.8.val, i64 noundef 176) #40
  br label %8

8:                                                ; preds = %_ZNSt8_Rb_treeI21grpc_resolved_addressSt4pairIKS0_N9grpc_core13RefCountedPtrINS3_12_GLOBAL__N_118OutlierDetectionLb15SubchannelStateEEEESt10_Select1stIS9_ENS3_23ResolvedAddressLessThanESaIS9_EE12_M_drop_nodeEPSt13_Rb_tree_nodeIS9_E.exit, %0
  ret void
}